target datalayout = "e-m:e-p270:32:32-p271:32:32-p272:64:64-i64:64-i128:128-f80:128-n8:16:32:64-S128"
target triple = "x86_64-pc-linux-gnu"

@local_test_path = internal global ptr null, align 8
@.str = private unnamed_addr constant [39 x i8] c"../qemu/tests/qtest/libqos/virtio-9p.c\00", align 1
@__func__.virtio_9p_assign_local_driver = private unnamed_addr constant [30 x i8] c"virtio_9p_assign_local_driver\00", align 1
@.str.9 = private unnamed_addr constant [37 x i8] c"'local_test_path' should not be NULL\00", align 1
@.str.10 = private unnamed_addr constant [14 x i8] c"-fsdev synth,\00", align 1
@.str.11 = private unnamed_addr constant [14 x i8] c"-fsdev local,\00", align 1
@.str.12 = private unnamed_addr constant [17 x i8] c"(-fsdev \\w[^ ]*)\00", align 1
@.str.13 = private unnamed_addr constant [13 x i8] c"\\1,path='%s'\00", align 1
@.str.14 = private unnamed_addr constant [6 x i8] c"\\1,%s\00", align 1

; Function Attrs: nounwind sspstrong uwtable
define dso_local void @virtio_9p_assign_local_driver(ptr noundef %0, ptr noundef %1) #0 {
  %3 = alloca ptr, align 8
  %4 = alloca ptr, align 8
  %5 = alloca i32, align 4
  %6 = alloca i32, align 4
  store ptr %0, ptr %3, align 8
  store ptr %1, ptr %4, align 8
  br label %7

7:                                                ; preds = %2
  call void @llvm.lifetime.start.p0(i64 4, ptr %5) #14
  store i32 0, ptr %5, align 4, !annotation !4
  %8 = load ptr, ptr @local_test_path, align 8
  %9 = icmp ne ptr %8, null
  br i1 %9, label %10, label %11

10:                                               ; preds = %7
  store i32 1, ptr %5, align 4
  br label %12

11:                                               ; preds = %7
  store i32 0, ptr %5, align 4
  br label %12

12:                                               ; preds = %11, %10
  %13 = load i32, ptr %5, align 4
  store i32 %13, ptr %6, align 4
  call void @llvm.lifetime.end.p0(i64 4, ptr %5) #14
  %14 = load i32, ptr %6, align 4
  %15 = sext i32 %14 to i64
  %16 = call i64 @llvm.expect.i64(i64 %15, i64 1)
  %17 = icmp ne i64 %16, 0
  br i1 %17, label %18, label %19

18:                                               ; preds = %12
  br label %20

19:                                               ; preds = %12
  call void @g_assertion_message(ptr noundef null, ptr noundef @.str, i32 noundef 233, ptr noundef @__func__.virtio_9p_assign_local_driver, ptr noundef @.str.9)
  br label %20

20:                                               ; preds = %19, %18
  br label %21

21:                                               ; preds = %20
  %22 = load ptr, ptr %3, align 8
  call void (ptr, ptr, ptr, ...) @regex_replace(ptr noundef %22, ptr noundef @.str.10, ptr noundef @.str.11)
  %23 = load ptr, ptr %3, align 8
  %24 = load ptr, ptr @local_test_path, align 8
  call void (ptr, ptr, ptr, ...) @regex_replace(ptr noundef %23, ptr noundef @.str.12, ptr noundef @.str.13, ptr noundef %24)
  %25 = load ptr, ptr %4, align 8
  %26 = icmp ne ptr %25, null
  br i1 %26, label %28, label %27

27:                                               ; preds = %21
  br label %31

28:                                               ; preds = %21
  %29 = load ptr, ptr %3, align 8
  %30 = load ptr, ptr %4, align 8
  call void (ptr, ptr, ptr, ...) @regex_replace(ptr noundef %29, ptr noundef @.str.12, ptr noundef @.str.14, ptr noundef %30)
  br label %31

31:                                               ; preds = %28, %27
  ret void
}