; Function Attrs: nounwind sspstrong uwtable
define dso_local void @virtio_9p_assign_local_driver(ptr noundef %0, ptr noundef %1) local_unnamed_addr #0 {
  %3 = load ptr, ptr @local_test_path, align 8
  %.not = icmp eq ptr %3, null
  br i1 %.not, label %4, label %5, !prof !7

4:                                                ; preds = %2
  tail call void @g_assertion_message(ptr noundef null, ptr noundef nonnull @.str, i32 noundef 233, ptr noundef nonnull @__func__.virtio_9p_assign_local_driver, ptr noundef nonnull @.str.9) #13
  br label %5

5:                                                ; preds = %4, %2
  tail call void (ptr, ptr, ptr, ...) @regex_replace(ptr noundef %0, ptr noundef nonnull @.str.10, ptr noundef nonnull @.str.11)
  %6 = load ptr, ptr @local_test_path, align 8
  tail call void (ptr, ptr, ptr, ...) @regex_replace(ptr noundef %0, ptr noundef nonnull @.str.12, ptr noundef nonnull @.str.13, ptr noundef %6)
  %.not8 = icmp eq ptr %1, null
  br i1 %.not8, label %8, label %7

7:                                                ; preds = %5
  tail call void (ptr, ptr, ptr, ...) @regex_replace(ptr noundef %0, ptr noundef nonnull @.str.12, ptr noundef nonnull @.str.14, ptr noundef nonnull %1)
  br label %8

8:                                                ; preds = %5, %7
  ret void
}